	.file	"test_kernel.cu"
	.section	.text.startup,"ax",@progbits
	.p2align	4                               # -- Begin function __cxx_global_var_init
	.type	__cxx_global_var_init,@function
__cxx_global_var_init:                  # @__cxx_global_var_init
	.cfi_startproc
# %bb.0:
	pushq	%rbp
	.cfi_def_cfa_offset 16
	.cfi_offset %rbp, -16
	movq	%rsp, %rbp
	.cfi_def_cfa_register %rbp
	leaq	_ZStL8__ioinit(%rip), %rdi
	callq	_ZNSt8ios_base4InitC1Ev@PLT
	movq	_ZNSt8ios_base4InitD1Ev@GOTPCREL(%rip), %rdi
	leaq	_ZStL8__ioinit(%rip), %rsi
	leaq	__dso_handle(%rip), %rdx
	callq	__cxa_atexit@PLT
	popq	%rbp
	.cfi_def_cfa %rsp, 8
	retq
.Lfunc_end0:
	.size	__cxx_global_var_init, .Lfunc_end0-__cxx_global_var_init
	.cfi_endproc
                                        # -- End function
	.text
	.globl	_Z13init_trackingPPPv           # -- Begin function _Z13init_trackingPPPv
	.p2align	4
	.type	_Z13init_trackingPPPv,@function
_Z13init_trackingPPPv:                  # @_Z13init_trackingPPPv
	.cfi_startproc
# %bb.0:
	pushq	%rbp
	.cfi_def_cfa_offset 16
	.cfi_offset %rbp, -16
	movq	%rsp, %rbp
	.cfi_def_cfa_register %rbp
	movq	%rdi, -8(%rbp)
	popq	%rbp
	.cfi_def_cfa %rsp, 8
	retq
.Lfunc_end1:
	.size	_Z13init_trackingPPPv, .Lfunc_end1-_Z13init_trackingPPPv
	.cfi_endproc
                                        # -- End function
	.globl	_Z10export_logPPvPKc            # -- Begin function _Z10export_logPPvPKc
	.p2align	4
	.type	_Z10export_logPPvPKc,@function
_Z10export_logPPvPKc:                   # @_Z10export_logPPvPKc
	.cfi_startproc
# %bb.0:
	pushq	%rbp
	.cfi_def_cfa_offset 16
	.cfi_offset %rbp, -16
	movq	%rsp, %rbp
	.cfi_def_cfa_register %rbp
	movq	%rdi, -8(%rbp)
	movq	%rsi, -16(%rbp)
	popq	%rbp
	.cfi_def_cfa %rsp, 8
	retq
.Lfunc_end2:
	.size	_Z10export_logPPvPKc, .Lfunc_end2-_Z10export_logPPvPKc
	.cfi_endproc
                                        # -- End function
	.globl	_Z23__device_stub__myKernelv    # -- Begin function _Z23__device_stub__myKernelv
	.p2align	4
	.type	_Z23__device_stub__myKernelv,@function
_Z23__device_stub__myKernelv:           # @_Z23__device_stub__myKernelv
	.cfi_startproc
# %bb.0:
	pushq	%rbp
	.cfi_def_cfa_offset 16
	.cfi_offset %rbp, -16
	movq	%rsp, %rbp
	.cfi_def_cfa_register %rbp
	subq	$112, %rsp
	leaq	-16(%rbp), %rdi
	leaq	-32(%rbp), %rsi
	leaq	-40(%rbp), %rdx
	leaq	-48(%rbp), %rcx
	callq	__cudaPopCallConfiguration@PLT
	movq	-40(%rbp), %r10
	movq	-48(%rbp), %rax
	movq	-16(%rbp), %rcx
	movq	%rcx, -64(%rbp)
	movl	-8(%rbp), %ecx
	movl	%ecx, -56(%rbp)
	movq	-64(%rbp), %rsi
	movl	-56(%rbp), %edx
	movq	-32(%rbp), %rcx
	movq	%rcx, -80(%rbp)
	movl	-24(%rbp), %ecx
	movl	%ecx, -72(%rbp)
	movq	-80(%rbp), %rcx
	movl	-72(%rbp), %r8d
	leaq	_Z23__device_stub__myKernelv(%rip), %rdi
	leaq	-96(%rbp), %r9
	movq	%r10, (%rsp)
	movq	%rax, 8(%rsp)
	callq	cudaLaunchKernel@PLT
# %bb.1:
	addq	$112, %rsp
	popq	%rbp
	.cfi_def_cfa %rsp, 8
	retq
.Lfunc_end3:
	.size	_Z23__device_stub__myKernelv, .Lfunc_end3-_Z23__device_stub__myKernelv
	.cfi_endproc
                                        # -- End function
	.globl	_Z28__device_stub__stride_accessPii # -- Begin function _Z28__device_stub__stride_accessPii
	.p2align	4
	.type	_Z28__device_stub__stride_accessPii,@function
_Z28__device_stub__stride_accessPii:    # @_Z28__device_stub__stride_accessPii
	.cfi_startproc
# %bb.0:
	pushq	%rbp
	.cfi_def_cfa_offset 16
	.cfi_offset %rbp, -16
	movq	%rsp, %rbp
	.cfi_def_cfa_register %rbp
	subq	$128, %rsp
	movq	%rdi, -8(%rbp)
	movl	%esi, -12(%rbp)
	leaq	-8(%rbp), %rax
	movq	%rax, -112(%rbp)
	leaq	-12(%rbp), %rax
	movq	%rax, -104(%rbp)
	leaq	-24(%rbp), %rdi
	leaq	-40(%rbp), %rsi
	leaq	-48(%rbp), %rdx
	leaq	-56(%rbp), %rcx
	callq	__cudaPopCallConfiguration@PLT
	movq	-48(%rbp), %r10
	movq	-56(%rbp), %rax
	movq	-24(%rbp), %rcx
	movq	%rcx, -72(%rbp)
	movl	-16(%rbp), %ecx
	movl	%ecx, -64(%rbp)
	movq	-72(%rbp), %rsi
	movl	-64(%rbp), %edx
	movq	-40(%rbp), %rcx
	movq	%rcx, -88(%rbp)
	movl	-32(%rbp), %ecx
	movl	%ecx, -80(%rbp)
	movq	-88(%rbp), %rcx
	movl	-80(%rbp), %r8d
	leaq	_Z28__device_stub__stride_accessPii(%rip), %rdi
	leaq	-112(%rbp), %r9
	movq	%r10, (%rsp)
	movq	%rax, 8(%rsp)
	callq	cudaLaunchKernel@PLT
# %bb.1:
	addq	$128, %rsp
	popq	%rbp
	.cfi_def_cfa %rsp, 8
	retq
.Lfunc_end4:
	.size	_Z28__device_stub__stride_accessPii, .Lfunc_end4-_Z28__device_stub__stride_accessPii
	.cfi_endproc
                                        # -- End function
	.globl	main                            # -- Begin function main
	.p2align	4
	.type	main,@function
main:                                   # @main
	.cfi_startproc
# %bb.0:
	pushq	%rbp
	.cfi_def_cfa_offset 16
	.cfi_offset %rbp, -16
	movq	%rsp, %rbp
	.cfi_def_cfa_register %rbp
	subq	$144, %rsp
	movl	$0, -4(%rbp)
	movl	$10, -8(%rbp)
	leaq	-16(%rbp), %rdi
	movl	$419430400, %esi                # imm = 0x19000000
	movl	$1, %edx
	callq	_ZL17cudaMallocManagedIiE9cudaErrorPPT_mj
	leaq	-28(%rbp), %rdi
	movl	$1, %ecx
	movl	%ecx, %esi
	movl	%ecx, %edx
	callq	_ZN4dim3C2Ejjj
	leaq	-40(%rbp), %rdi
	movl	$5, %esi
	movl	$1, %ecx
	movl	%ecx, %edx
	callq	_ZN4dim3C2Ejjj
	movq	-28(%rbp), %rax
	movq	%rax, -56(%rbp)
	movl	-20(%rbp), %eax
	movl	%eax, -48(%rbp)
	movq	-56(%rbp), %rdi
	movl	-48(%rbp), %esi
	movq	-40(%rbp), %rax
	movq	%rax, -72(%rbp)
	movl	-32(%rbp), %eax
	movl	%eax, -64(%rbp)
	movq	-72(%rbp), %rdx
	movl	-64(%rbp), %ecx
	xorl	%eax, %eax
	movl	%eax, %r9d
	movq	%r9, %r8
	callq	__cudaPushCallConfiguration@PLT
	cmpl	$0, %eax
	jne	.LBB5_2
# %bb.1:
	callq	_Z23__device_stub__myKernelv
.LBB5_2:
	leaq	-84(%rbp), %rdi
	movl	$1, %ecx
	movl	%ecx, %esi
	movl	%ecx, %edx
	callq	_ZN4dim3C2Ejjj
	leaq	-96(%rbp), %rdi
	movl	$5, %esi
	movl	$1, %ecx
	movl	%ecx, %edx
	callq	_ZN4dim3C2Ejjj
	movq	-84(%rbp), %rax
	movq	%rax, -112(%rbp)
	movl	-76(%rbp), %eax
	movl	%eax, -104(%rbp)
	movq	-112(%rbp), %rdi
	movl	-104(%rbp), %esi
	movq	-96(%rbp), %rax
	movq	%rax, -128(%rbp)
	movl	-88(%rbp), %eax
	movl	%eax, -120(%rbp)
	movq	-128(%rbp), %rdx
	movl	-120(%rbp), %ecx
	xorl	%eax, %eax
	movl	%eax, %r9d
	movq	%r9, %r8
	callq	__cudaPushCallConfiguration@PLT
	cmpl	$0, %eax
	jne	.LBB5_4
# %bb.3:
	movq	-16(%rbp), %rdi
	movl	-8(%rbp), %esi
	callq	_Z28__device_stub__stride_accessPii
.LBB5_4:
	callq	cudaDeviceSynchronize@PLT
	movl	%eax, -132(%rbp)
	cmpl	$0, -132(%rbp)
	je	.LBB5_6
# %bb.5:
	movl	-132(%rbp), %edi
	callq	cudaGetErrorString@PLT
	movq	%rax, %rsi
	leaq	.L.str(%rip), %rdi
	movb	$0, %al
	callq	printf@PLT
.LBB5_6:
	leaq	.L.str.1(%rip), %rdi
	movb	$0, %al
	callq	printf@PLT
	xorl	%eax, %eax
	addq	$144, %rsp
	popq	%rbp
	.cfi_def_cfa %rsp, 8
	retq
.Lfunc_end5:
	.size	main, .Lfunc_end5-main
	.cfi_endproc
                                        # -- End function
	.p2align	4                               # -- Begin function _ZL17cudaMallocManagedIiE9cudaErrorPPT_mj
	.type	_ZL17cudaMallocManagedIiE9cudaErrorPPT_mj,@function
_ZL17cudaMallocManagedIiE9cudaErrorPPT_mj: # @_ZL17cudaMallocManagedIiE9cudaErrorPPT_mj
	.cfi_startproc
# %bb.0:
	pushq	%rbp
	.cfi_def_cfa_offset 16
	.cfi_offset %rbp, -16
	movq	%rsp, %rbp
	.cfi_def_cfa_register %rbp
	subq	$32, %rsp
	movq	%rdi, -8(%rbp)
	movq	%rsi, -16(%rbp)
	movl	%edx, -20(%rbp)
	movq	-8(%rbp), %rdi
	movq	-16(%rbp), %rsi
	movl	-20(%rbp), %edx
	callq	cudaMallocManaged@PLT
	addq	$32, %rsp
	popq	%rbp
	.cfi_def_cfa %rsp, 8
	retq
.Lfunc_end6:
	.size	_ZL17cudaMallocManagedIiE9cudaErrorPPT_mj, .Lfunc_end6-_ZL17cudaMallocManagedIiE9cudaErrorPPT_mj
	.cfi_endproc
                                        # -- End function
	.section	.text._ZN4dim3C2Ejjj,"axG",@progbits,_ZN4dim3C2Ejjj,comdat
	.weak	_ZN4dim3C2Ejjj                  # -- Begin function _ZN4dim3C2Ejjj
	.p2align	4
	.type	_ZN4dim3C2Ejjj,@function
_ZN4dim3C2Ejjj:                         # @_ZN4dim3C2Ejjj
	.cfi_startproc
# %bb.0:
	pushq	%rbp
	.cfi_def_cfa_offset 16
	.cfi_offset %rbp, -16
	movq	%rsp, %rbp
	.cfi_def_cfa_register %rbp
	movq	%rdi, -8(%rbp)
	movl	%esi, -12(%rbp)
	movl	%edx, -16(%rbp)
	movl	%ecx, -20(%rbp)
	movq	-8(%rbp), %rax
	movl	-12(%rbp), %ecx
	movl	%ecx, (%rax)
	movl	-16(%rbp), %ecx
	movl	%ecx, 4(%rax)
	movl	-20(%rbp), %ecx
	movl	%ecx, 8(%rax)
	popq	%rbp
	.cfi_def_cfa %rsp, 8
	retq
.Lfunc_end7:
	.size	_ZN4dim3C2Ejjj, .Lfunc_end7-_ZN4dim3C2Ejjj
	.cfi_endproc
                                        # -- End function
	.section	.text.startup,"ax",@progbits
	.p2align	4                               # -- Begin function _GLOBAL__sub_I_test_kernel.cu
	.type	_GLOBAL__sub_I_test_kernel.cu,@function
_GLOBAL__sub_I_test_kernel.cu:          # @_GLOBAL__sub_I_test_kernel.cu
	.cfi_startproc
# %bb.0:
	pushq	%rbp
	.cfi_def_cfa_offset 16
	.cfi_offset %rbp, -16
	movq	%rsp, %rbp
	.cfi_def_cfa_register %rbp
	callq	__cxx_global_var_init
	popq	%rbp
	.cfi_def_cfa %rsp, 8
	retq
.Lfunc_end8:
	.size	_GLOBAL__sub_I_test_kernel.cu, .Lfunc_end8-_GLOBAL__sub_I_test_kernel.cu
	.cfi_endproc
                                        # -- End function
	.text
	.p2align	4                               # -- Begin function __cuda_register_globals
	.type	__cuda_register_globals,@function
__cuda_register_globals:                # @__cuda_register_globals
	.cfi_startproc
# %bb.0:
	subq	$40, %rsp
	.cfi_def_cfa_offset 48
	movq	%rdi, 32(%rsp)                  # 8-byte Spill
	leaq	_Z23__device_stub__myKernelv(%rip), %rsi
	leaq	.L__unnamed_1(%rip), %rcx
	movl	$4294967295, %r8d               # imm = 0xFFFFFFFF
	xorl	%eax, %eax
	movl	%eax, %r9d
	movq	%rcx, %rdx
	movq	$0, (%rsp)
	movq	$0, 8(%rsp)
	movq	$0, 16(%rsp)
	movq	$0, 24(%rsp)
	callq	__cudaRegisterFunction@PLT
	movq	32(%rsp), %rdi                  # 8-byte Reload
	leaq	_Z28__device_stub__stride_accessPii(%rip), %rsi
	leaq	.L__unnamed_2(%rip), %rcx
	movl	$4294967295, %r8d               # imm = 0xFFFFFFFF
	xorl	%eax, %eax
	movl	%eax, %r9d
	movq	%rcx, %rdx
	movq	$0, (%rsp)
	movq	$0, 8(%rsp)
	movq	$0, 16(%rsp)
	movq	$0, 24(%rsp)
	callq	__cudaRegisterFunction@PLT
	addq	$40, %rsp
	.cfi_def_cfa_offset 8
	retq
.Lfunc_end9:
	.size	__cuda_register_globals, .Lfunc_end9-__cuda_register_globals
	.cfi_endproc
                                        # -- End function
	.p2align	4                               # -- Begin function __cuda_module_ctor
	.type	__cuda_module_ctor,@function
__cuda_module_ctor:                     # @__cuda_module_ctor
	.cfi_startproc
# %bb.0:
	pushq	%rax
	.cfi_def_cfa_offset 16
	leaq	__cuda_fatbin_wrapper(%rip), %rdi
	callq	__cudaRegisterFatBinary@PLT
	movq	%rax, %rdi
	movq	%rdi, (%rsp)                    # 8-byte Spill
	movq	%rdi, __cuda_gpubin_handle(%rip)
	callq	__cuda_register_globals
	movq	(%rsp), %rdi                    # 8-byte Reload
	callq	__cudaRegisterFatBinaryEnd@PLT
	leaq	__cuda_module_dtor(%rip), %rdi
	callq	atexit@PLT
	popq	%rax
	.cfi_def_cfa_offset 8
	retq
.Lfunc_end10:
	.size	__cuda_module_ctor, .Lfunc_end10-__cuda_module_ctor
	.cfi_endproc
                                        # -- End function
	.p2align	4                               # -- Begin function __cuda_module_dtor
	.type	__cuda_module_dtor,@function
__cuda_module_dtor:                     # @__cuda_module_dtor
	.cfi_startproc
# %bb.0:
	pushq	%rax
	.cfi_def_cfa_offset 16
	movq	__cuda_gpubin_handle(%rip), %rdi
	callq	__cudaUnregisterFatBinary@PLT
	popq	%rax
	.cfi_def_cfa_offset 8
	retq
.Lfunc_end11:
	.size	__cuda_module_dtor, .Lfunc_end11-__cuda_module_dtor
	.cfi_endproc
                                        # -- End function
	.type	_ZStL8__ioinit,@object          # @_ZStL8__ioinit
	.local	_ZStL8__ioinit
	.comm	_ZStL8__ioinit,1,1
	.hidden	__dso_handle
	.type	.L.str,@object                  # @.str
	.section	.rodata.str1.1,"aMS",@progbits,1
.L.str:
	.asciz	"Kernel launch failed with error: %s\\n"
	.size	.L.str, 38

	.type	.L.str.1,@object                # @.str.1
.L.str.1:
	.asciz	"Kernel launch successful"
	.size	.L.str.1, 25

	.type	.L__unnamed_1,@object           # @0
.L__unnamed_1:
	.asciz	"_Z8myKernelv"
	.size	.L__unnamed_1, 13

	.type	.L__unnamed_2,@object           # @1
.L__unnamed_2:
	.asciz	"_Z13stride_accessPii"
	.size	.L__unnamed_2, 21

	.type	.L__unnamed_3,@object           # @2
	.section	.nv_fatbin,"a",@progbits
	.p2align	3, 0x0
.L__unnamed_3:
	.asciz	"P\355U\272\001\000\020\000p$\000\000\000\000\000\000\002\000\001\001@\000\000\0000$\000\000\000\000\000\000\000\000\000\000\000\000\000\000\007\000\001\000Y\000\000\000\000\000\000\000\000\000\000\000\021\000\000\000\000\000\000\000\000\000\000\000\000\000\000\000\000\000\000\000\000\000\000\000\177ELF\002\001\0013\007\000\000\000\000\000\000\000\002\000\276\000v\000\000\000\000\000\000\000\000\000\000\000P#\000\000\000\000\000\000P\036\000\000\000\000\000\000Y\005Y\000@\0008\000\004\000@\000\024\000\001\000\000.shstrtab\000.strtab\000.symtab\000.symtab_shndx\000.nv.info\000.text._Z13stride_accessPii\000.nv.info._Z13stride_accessPii\000.nv.shared._Z13stride_accessPii\000.nv.global.init\000.nv.global\000.rel.text._Z13stride_accessPii\000.rela.text._Z13stride_accessPii\000.nv.constant0._Z13stride_accessPii\000.text._Z8myKernelv\000.nv.info._Z8myKernelv\000.nv.shared._Z8myKernelv\000.rel.text._Z8myKernelv\000.rela.text._Z8myKernelv\000.nv.constant0._Z8myKernelv\000.debug_frame\000.rel.debug_frame\000.rela.debug_frame\000.nv.rel.action\000\000.shstrtab\000.strtab\000.symtab\000.symtab_shndx\000.nv.info\000_Z13stride_accessPii\000.text._Z13stride_accessPii\000.nv.info._Z13stride_accessPii\000.nv.shared._Z13stride_accessPii\000.nv.global.init\000_$_str\000.nv.global\000threadIdx\000_$_str1\000blockIdx\000blockDim\000_$_str2\000vprintf\000.rel.text._Z13stride_accessPii\000.rela.text._Z13stride_accessPii\000.nv.constant0._Z13stride_accessPii\000_param\000_Z8myKernelv\000.text._Z8myKernelv\000.nv.info._Z8myKernelv\000.nv.shared._Z8myKernelv\000.rel.text._Z8myKernelv\000.rela.text._Z8myKernelv\000.nv.constant0._Z8myKernelv\000_SREG\000.debug_frame\000.rel.debug_frame\000.rela.debug_frame\000.nv.rel.action\000\000\000\000\000\000\000\000\000\000\000\000\000\000\000\000\000\000\000\000\000\000\000\000\000\000\000G\000\000\000\003\000\020\000\000\000\000\000\000\000\000\000\000\000\000\000\000\000\000\000\240\000\000\000\003\000\022\000\000\000\000\000\000\000\000\000\000\000\000\000\000\000\000\000\260\000\000\000\001\000\022\000\022\000\000\000\000\000\000\000\032\000\000\000\000\000\000\000\267\000\000\000\003\000\023\000\000\000\000\000\000\000\000\000\000\000\000\000\000\000\000\000\302\000\000\000\001\000\023\000\001\000\000\000\000\000\000\000\001\000\000\000\000\000\000\000\314\000\000\000\001\000\022\000,\000\000\000\000\000\000\000\"\000\000\000\000\000\000\000\324\000\000\000\001\000\023\000\002\000\000\000\000\000\000\000\001\000\000\000\000\000\000\000\335\000\000\000\001\000\023\000\000\000\000\000\000\000\000\000\001\000\000\000\000\000\000\000\346\000\000\000\001\000\022\000\000\000\000\000\000\000\000\000\022\000\000\000\000\000\000\0005\001\000\000\003\000\016\000\000\000\000\000\000\000\000\000\000\000\000\000\000\000\000\000l\001\000\000\003\000\021\000\000\000\000\000\000\000\000\000\000\000\000\000\000\000\000\000\334\001\000\000\003\000\017\000\000\000\000\000\000\000\000\000\000\000\000\000\000\000\000\000\375\001\000\000\003\000\004\000\000\000\000\000\000\000\000\000\000\000\000\000\000\000\000\000-\002\000\000\003\000\b\000\000\000\000\000\000\000\000\000\000\000\000\000\000\000\000\0002\000\000\000\022\020\020\000\000\000\000\000\000\000\000\000\000\r\000\000\000\000\000\000\356\000\000\000\022\000\000\000\000\000\000\000\000\000\000\000\000\000\000\000\000\000\000\000_\001\000\000\022\020\021\000\000\000\000\000\000\000\000\000\000\004\000\000\000\000\000\000\377\377\377\377$\000\000\000\000\000\000\000\377\377\377\377\377\377\377\377\003\000\004|\377\377\377\377\017\f\201\200\200(\000\b\377\201\200(\b\201\200\200(\000\000\000\377\377\377\3774\000\000\000\000\000\000\000\000\000\000\000\000\000\000\000\000\000\000\000\000\000\000\000\000\r\000\000\000\000\000\000\004\004\000\000\000\004\004\000\000\000\f\201\200\200( \004\f\003\000\000\000\000\000\000\000\000\000\377\377\377\377$\000\000\000\000\000\000\000\377\377\377\377\377\377\377\377\003\000\004|\377\377\377\377\017\f\201\200\200(\000\b\377\201\200(\b\201\200\200(\000\000\000\377\377\377\3774\000\000\000\000\000\000\000p\000\000\000\000\000\000\000\000\000\000\000\000\000\000\000\000\004\000\000\000\000\000\000\004\004\000\000\000\004\004\000\000\000\f\201\200\200(\b\004\270\000\000\000\000\000\000\000\000\000\000\004/\b\000\021\000\000\000\030\000\000\000\004#\b\000\021\000\000\000\000\000\000\000\004\022\b\000\021\000\000\000\b\000\000\000\004\021\b\000\021\000\000\000\b\000\000\000\004/\b\000\017\000\000\000\030\000\000\000\004#\b\000\017\000\000\000\000\000\000\000\004\022\b\000\017\000\000\000 \000\000\000\004\021\b\000\017\000\000\000 \000\000\000\0047\004\000v\000\000\000\004\n\b\000\n\000\000\000`\001\f\000\003\031\f\000\004\027\f\000\000\000\000\000\001\000\b\000\000\360\021\000\004\027\f\000\000\000\000\000\000\000\000\000\000\365!\000\003\033\377\000\004\017\004\000\020\000\000\000\004\034\004\000P\f\000\000\004\036\004\000\000\000\000\000\0047\004\000v\000\000\000\003\033\377\000\004\017\004\000\020\000\000\000\004\034\004\000\000\003\000\000K\000\000\000\000\000\000\000\000\002\002\b\020\n/\"\000\000\000\b\000\000\000\000\000\000\b\b\000\000\000\000\000\000\020\b\000\000\000\000\000\000\030\b\000\000\000\000\000\000 \b\000\000\000\000\000\000(\b\000\000\000\000\000\0000\b\000\000\000\000\000\0008\b\000\000\000\000\001\000\000\b\000\000\000\000\001\000\b\b\000\000\000\000\001\000\020\b\000\000\000\000\001\000\030\b\000\000\000\000\001\000 \b\000\000\000\000\001\000(\b\000\000\000\000\001\0000\b\000\000\000\000\001\0008\b\000\000\000\000\002\000\000\b\000\000\000\000\002\000\b\b\000\000\000\000\002\000\020\b\000\000\000\000\002\000\030\b\000\000\000\000\002\000 \b\000\000\000\000\002\000(\b\000\000\000\000\002\0000\b\000\000\000\000\002\0008\b\000\000\000\000\000\000\000\024,\000\000\000\003\000\000\f\000\000\000\000@\f\000\000\000\000\000\000:\000\000\000\020\000\000\0000\013\000\000\000\000\000\0009\000\000\000\t\000\000\000 \013\000\000\000\000\000\0008\000\000\000\t\000\000\0000\005\000\000\000\000\000\000:\000\000\000\020\000\000\000\360\003\000\000\000\000\000\0009\000\000\000\006\000\000\000\340\003\000\000\000\000\000\0008\000\000\000\006\000\000\0000\f\000\000\000\000\000\0009\000\000\000\017\000\000\000P\f\000\000\000\000\000\000 \f\000\000\000\000\000\0008\000\000\000\017\000\000\000P\f\000\000\000\000\000\000 \005\000\000\000\000\000\0009\000\000\000\017\000\000\000@\005\000\000\000\000\000\000\020\005\000\000\000\000\000\0008\000\000\000\017\000\000\000@\005\000\000\000\000\000\000\360\002\000\000\000\000\000\000:\000\000\000\020\000\000\000\340\001\000\000\000\000\000\0009\000\000\000\003\000\000\000\320\001\000\000\000\000\000\0008\000\000\000\003\000\000\000\340\002\000\000\000\000\000\0009\000\000\000\021\000\000\000\000\003\000\000\000\000\000\000\320\002\000\000\000\000\000\0008\000\000\000\021\000\000\000\000\003\000\000\000\000\000\000\264\000\000\000\000\000\000\000\002\000\000\000\021\000\000\000D\000\000\000\000\000\000\000\002\000\000\000\017\000\000\000\000\000\000\000\000\000\000\000\000\000\000\000\000\000\000\000\000\000\000\000\000\000\000\000\000\000\000\000\000\000\000\000\000\000\000\000\000\000\000\000\000\000\000\000\000\000\000\000\000\000\000\000\000\000\000\000\000\000\000\000\000\000\000\000\000\000\000\000\000\000\000\000\000\000\000\000\000\000\000\000\000\000\000\000\000\000\000\000\000\000\000\000\000\000\000\000\000\000\000\000\000\000\000\000\000\000\000\000\000\000\000\000\000\000\000\000\000\000\000\000\000\000\000\000\000\000\000\000\000\000\000\000\000\000\000\000\000\000\000\000\000\000\000\000\000\000\000\000\000\000\000\000\000\000\000\000\000\000\000\000\000\000\000\000\000\000\000\000\000\000\000\000\000\000\000\000\000\000\000\000\000\000\000\000\000\000\000\000\000\000\000\000\000\000\000\000\000\000\000\000\000\000\000\000\000\000\000\000\000\000\000\000\000\000\000\000\000\000\000\000\000\000\000\000\000\000\000\000\000\000\000\000\000\000\000\000\000\000\000\000\000\000\000\000\000\000\000\000\000\000\000\000\000\000\000\000\000\000\000\000\000\000\000\000\000\000\000\000\000\000\000\000\000\000\000\000\000\000\000\000\000\000\000\000\000\000\000\000\000\000\000\000\000\000\000\000\000\000\000\000\000\000\000\000\000\000\000\000\000\000\000\000\000\000\000\000\000\000\000\000\000\000\000\000\000\000\000\000\000\000\000\000\000\000\000\000\000\000\000\000\000\000\000\000\000\000\000\000\000\000\000\000\000\000\000\000\000\000\000\000\000\000\000\000\000\000\000\000\000\000\000\000\000\000\000\000\000\000\000\000\000\000\000\000\000\000\000\000\000\000\000\000\000\000\000\000\000\000\000\000\000\000\000\000\000\000\000\000\000\000\000\000\000\000\000\000\000\000\000\000\000\000\000\000\000\000\000\000\000\000\000\000\000\000\000\000\000\000\000\000\000\000\000\000\000\000\000\000\000\000\000\000\000\000\000\000\000\000\000\000\000\000\000\000\000\000\000\000\000\000\000\000\000\000\000\000\000\000\000\000\000\000\000\000\000\000\000\000\000\000\000\000\000\000\000\000\000\000\000\000\000\000\000\000\000\000\000\000\000\000\000\000\000\000\000\000\000\000\000\000\000\000\000\000\000\000\000\000\000\000\000\000\000\000\000\000\000\000\000\000\000\000\000\000\000\000\000\000\000\000\000\000\000\000\000\000\000\000\000\000\000\000\000\000\000\000\000\000\000\000\000\000\000\000\000\000\000\000\000\000\000\000\000\000\000\000\000\000\000\000\000\000\000\000\000\000\000\000\000\000\000\000\000\000\000\000\000\000\000\000\000\000\000\000\000\000\000\000\000\000\000\000\000\000\000\000\000\000\000\000\000\000\000\000\000\000\000\000\000\000\000\000\000\000\000\000\000\000\000\000\000\000\000\000\000\000\000\000\000\000\000\000\000\000\000\000\000\000\000\000\000\000\000\000\000\000\000\000\000\000\000\000\000\000\000\000\000\000\000\000\000\000\000\000\000\000\000\000\000\000\000\000\000\000\000\000\000\000\000\000\000\000\000\000\000\000\000\000\000\000\000\000\000\000\000\000\000\000\000\000\000\000\000\000\000\000\000\000\000\000\000\000\000\000\000\000\000\000\000\000\000\000\000\000\000\000\000\000\000\000\000\000\000\000\000\000\000\000\000\000\000\000\000\000\000\000\000\000\000\000\000\000\000\000\000\000\000\000\000\000\000\000\000\000\000\000\000\000\000\000\000\000\000\000\000\000\000\000\000\000\000\000\000\000\000\000\002z\001\000\000\n\000\000\000\017\000\000\000\336?\000\020x\001\001\340\377\377\377\377\340\377\007\000\336?\000\031y\000\000\000\000\000\000\0007\000\000\000\0362\000\fr\000\001\000\000\000\000p`\360\003\000\336?\000G\t\000\000\020\000\000\000\000\000\200\003\000\336?\000\\y\000\000\004\000\000\000\000\0000\000\000\336?\000\002z\022\000\000F\000\000\000\017\000\000\000\336?\000\002z\023\000\000G\000\000\000\017\000\000\000\336?\000\020r\000\001\377\000\000\000\377\340\377\007\000\336?\000\002r\000\000\000\000\000\000\000\017\000\000\000\336?\000\002r\002\000\000\000\000\000\000\017\000\000\000\336?\000\002r\003\000\377\000\000\000\000\017\000\000\000\336?\000\002r\000\000\002\000\000\000\000\017\000\000\000\336?\000\002r\003\000\003\000\000\000\000\017\000\000\000\336?\000\002r\000\000\000\000\000\000\000\017\000\000\000\336?\000\002r\003\000\003\000\000\000\000\017\000\000\000\336?\000\002z\020\000\000\b\000\000\000\017\000\000\000\336?\000\002z\002\000\000\t\000\000\000\017\000\000\000\336?\000\020r\020\000\020\000\000\000\377\340\361\007\000\336?\000\020r\002\003\002\000\000\000\377\344\177\000\000\336?\000\002x\000\000\b\000\000\000\000\017\000\000\000\336?\000\202{\000\000\000X\000\000\000\b\000\000\000\0362\000\002r\000\000\000\000\000\000\000\017\000\000\000\336?\000\002r\004\000\377\000\000\000\000\017\000\000\000\336?\000\202{\004\004\000X\000\000\000\n\000\000\000\0362\000\002r\003\000\004\000\000\000\000\017\000\000\000\336?\000\002r\005\000\005\000\000\000\000\017\000\000\000\336?\000\002r\004\000\003\000\000\000\000\017\000\000\000\336?\000\002r\005\000\005\000\000\000\000\017\000\000\000\336?\000\002r\004\000\004\000\000\000\000\017\000\000\000\336?\000\002r\005\000\005\000\000\000\000\017\000\000\000\336?\000\002r\004\000\004\000\000\000\000\017\000\000\000\336?\000\002r\005\000\005\000\000\000\000\017\000\000\000\336?\000\002r\004\000\004\000\000\000\000\017\000\000\000\336?\000\002r\005\000\005\000\000\000\000\017\000\000\000\336?\000\002r\006\000\020\000\000\000\000\017\000\000\000\336?\000\002r\007\000\002\000\000\000\000\017\000\000\000\336?\000\002r\006\000\006\000\000\000\000\017\000\000\000\336?\000\002r\007\000\007\000\000\000\000\017\000\000\000\336?\000\302s\004\022\000\000\000\000\000\000\016\000\000\0362\000\302s\005\023\000\000\000\000\000\000\016\000\000\0362\000\205y\000\006\004\000\000\000\004\033\020\f\000\3363\000\020x\004\020\b\000\000\000\377\340\361\007\000\336?\000\020r\005\002\377\000\000\000\377\344\177\000\000\336?\000\002r\004\000\004\000\000\000\000\017\000\000\000\336?\000\002r\005\000\005\000\000\000\000\017\000\000\000\336?\000\002r\004\000\004\000\000\000\000\017\000\000\000\336?\000\002r\005\000\005\000\000\000\000\017\000\000\000\336?\000\302s\004\022\000\000\000\000\000\000\016\000\000\0362\000\302s\005\023\000\000\000\000\000\000\016\000\000\0362\000\205y\000\004\000\000\000\000\004\031\020\f\000\3363\000\031y\021\000\000\000\000\000\000!\000\000\000\0362\000\002r\021\000\021\000\000\000\000\017\000\000\000\336?\000\020x\004\020\020\000\000\000\377\340\361\007\000\336?\000\020r\005\002\377\000\000\000\377\344\177\000\000\336?\000\002r\004\000\004\000\000\000\000\017\000\000\000\336?\000\002r\005\000\005\000\000\000\000\017\000\000\000\336?\000\002r\004\000\004\000\000\000\000\017\000\000\000\336?\000\002r\005\000\005\000\000\000\000\017\000\000\000\336?\000\302s\004\022\000\000\000\000\000\000\016\000\000\0362\000\302s\005\023\000\000\000\000\000\000\016\000\000\0362\000\205y\000\004\021\000\000\000\004\031\020\f\000\3363\000\002x\004\000\000\000\000\000\000\017\000\000\000\336?\000\002x\005\000\000\000\000\000\000\017\000\000\000\336?\000\002r\004\000\004\000\000\000\000\017\000\000\000\336?\000\002r\005\000\005\000\000\000\000\017\000\000\000\336?\000\002r\004\000\004\000\000\000\000\017\000\000\000\336?\000\002r\005\000\005\000\000\000\000\017\000\000\000\336?\000\002r\000\000\004\000\000\000\000\017\000\000\000\336?\000\002r\005\000\005\000\000\000\000\017\000\000\000\336?\000\002r\004\000\000\000\000\000\000\017\000\000\000\336?\000\002r\005\000\005\000\000\000\000\017\000\000\000\336?\000\020x\006\020\020\000\000\000\377\340\361\007\000\336?\000\020r\007\002\377\000\000\000\377\344\177\000\000\336?\000\002r\004\000\004\000\000\000\000\017\000\000\000\336?\000\002r\005\000\005\000\000\000\000\017\000\000\000\336?\000\002r\006\000\006\000\000\000\000\017\000\000\000\336?\000\002r\007\000\007\000\000\000\000\017\000\000\000\336?\000\002r\020\000\020\000\000\000\000\017\000\000\000\336?\000\002r\002\000\002\000\000\000\000\017\000\000\000\336?\000\002r\021\000\021\000\000\000\000\017\000\000\000\336?\000\002x\024\000\000\000\000\000\000\017\000\000\000\336?\000\002x\025\000\000\000\000\000\000\017\000\000\000\336?\000Cy\000\000\000\000\000\000\000\000\300\003\000\336?\000\031y\000\000\000\000\000\000\000%\000\000\000\0362\000\002r\000\000\000\000\000\000\000\017\000\000\000\336?\000\002z\003\000\000\000\000\000\000\017\000\000\000\336?\000$r\000\000\003\000\000\000\377\002\216\007\000\336?\000\020r\000\000\021\000\000\000\377\340\377\007\000\336?\000\020x\004\020\024\000\000\000\377\340\361\007\000\336?\000\020r\005\002\377\000\000\000\377\344\177\000\000\336?\000\002r\004\000\004\000\000\000\000\017\000\000\000\336?\000\002r\005\000\005\000\000\000\000\017\000\000\000\336?\000\002r\004\000\004\000\000\000\000\017\000\000\000\336?\000\002r\005\000\005\000\000\000\000\017\000\000\000\336?\000\302s\004\022\000\000\000\000\000\000\016\000\000\0362\000\302s\005\023\000\000\000\000\000\000\016\000\000\0362\000\205y\000\004\000\000\000\000\004\031\020\f\000\3363\000\020x\004\020\024\000\000\000\377\340\361\007\000\336?\000\020r\005\002\377\000\000\000\377\344\177\000\000\336?\000\002r\004\000\004\000\000\000\000\017\000\000\000\336?\000\002r\005\000\005\000\000\000\000\017\000\000\000\336?\000\002r\004\000\004\000\000\000\000\017\000\000\000\336?\000\002r\005\000\005\000\000\000\000\017\000\000\000\336?\000\302s\004\022\000\000\000\000\000\000\016\000\000\0362\000\302s\005\023\000\000\000\000\000\000\016\000\000\0362\000\200y\000\004\004\000\000\000\000\031\020\f\000\0362\000\020x\004\020\b\000\000\000\377\340\361\007\000\336?\000\020r\005\002\377\000\000\000\377\344\177\000\000\336?\000\002r\004\000\004\000\000\000\000\017\000\000\000\336?\000\002r\005\000\005\000\000\000\000\017\000\000\000\336?\000\002r\004\000\004\000\000\000\000\017\000\000\000\336?\000\002r\005\000\005\000\000\000\000\017\000\000\000\336?\000\302s\004\022\000\000\000\000\000\000\016\000\000\0362\000\302s\005\023\000\000\000\000\000\000\016\000\000\0362\000\200y\004\004\004\000\000\000\000\031\020\f\000\0362\000\fr\000\000\004\000\000\000pb\360\003\000\336?\000Ey\000\000\240\002\000\000\000\000\200\003\000\336?\000G\t\000\000\200\002\000\000\000\000\200\003\000\336?\000Gy\000\000\000\000\000\000\000\000\200\003\000\336?\000\020x\004\020\024\000\000\000\377\340\361\007\000\336?\000\020r\005\002\377\000\000\000\377\344\177\000\000\336?\000\002r\004\000\004\000\000\000\000\017\000\000\000\336?\000\002r\005\000\005\000\000\000\000\017\000\000\000\336?\000\002r\004\000\004\000\000\000\000\017\000\000\000\336?\000\002r\005\000\005\000\000\000\000\017\000\000\000\336?\000\302s\004\022\000\000\000\000\000\000\016\000\000\0362\000\302s\005\023\000\000\000\000\000\000\016\000\000\0362\000\200y\000\004\004\000\000\000\000\031\020\f\000\0362\000\002r\004\000\020\000\000\000\000\017\000\000\000\336?\000\002r\005\000\002\000\000\000\000\017\000\000\000\336?\000\002r\004\000\004\000\000\000\000\017\000\000\000\336?\000\002r\005\000\005\000\000\000\000\017\000\000\000\336?\000\302s\004\022\000\000\000\000\000\000\016\000\000\0362\000\302s\005\023\000\000\000\000\000\000\016\000\000\0362\000\200y\004\004\004\000\000\000\000\033\020\f\000\0362\000\002r\006\000\004\000\000\000\000\017\000\000\000\336?\000\002r\007\000\005\000\000\000\000\017\000\000\000\336?\000\031x\003\000\n\000\000\000\377\006\000\000\000\336?\000\002r\003\000\003\000\000\000\000\017\000\000\000\336?\000\031x\004\377\037\000\000\000\003\024\001\000\000\336?\000\002r\005\000\004\000\000\000\000\017\000\000\000\336?\000\002r\004\000\003\000\000\000\000\017\000\000\000\336?\000\002r\003\000\004\000\000\000\000\017\000\000\000\336?\000\002r\005\000\005\000\000\000\000\017\000\000\000\336?\000\002r\004\000\003\000\000\000\000\017\000\000\000\336?\000\002r\005\000\005\000\000\000\000\017\000\000\000\336?\000\031x\005\004\002\000\000\000\005\002\001\000\000\336?\000\031x\004\004\002\000\000\000\377\006\000\000\000\336?\000\020r\004\006\004\000\000\000\377\340\361\007\000\336?\000\020r\005\007\005\000\000\000\377\344\177\000\000\336?\000\002r\004\000\004\000\000\000\000\017\000\000\000\336?\000\002r\005\000\005\000\000\000\000\017\000\000\000\336?\000\002r\004\000\004\000\000\000\000\017\000\000\000\336?\000\002r\005\000\005\000\000\000\000\017\000\000\000\336?\000\302s\004\022\000\000\000\000\000\000\016\000\000\0362\000\302s\005\023\000\000\000\000\000\000\016\000\000\0362\000\205y\000\004\000\000\000\000\004\031\020\f\000\3363\000Gy\000\000\000\000\000\000\000\000\200\003\000\336?\000Ay\000\000\000\000\000\000\000\000\200\003\000\336?\000\020x\004\020\024\000\000\000\377\340\361\007\000\336?\000\020r\005\002\377\000\000\000\377\344\177\000\000\336?\000\002r\004\000\004\000\000\000\000\017\000\000\000\336?\000\002r\005\000\005\000\000\000\000\017\000\000\000\336?\000\002r\004\000\004\000\000\000\000\017\000\000\000\336?\000\002r\005\000\005\000\000\000\000\017\000\000\000\336?\000\302s\004\022\000\000\000\000\000\000\016\000\000\0362\000\302s\005\023\000\000\000\000\000\000\016\000\000\0362\000\200y\000\004\004\000\000\000\000\031\020\f\000\0362\000\020x\004\020\030\000\000\000\377\340\361\007\000\336?\000\020r\005\002\377\000\000\000\377\344\177\000\000\336?\000\002r\004\000\004\000\000\000\000\017\000\000\000\336?\000\002r\005\000\005\000\000\000\000\017\000\000\000\336?\000\002r\004\000\004\000\000\000\000\017\000\000\000\336?\000\002r\005\000\005\000\000\000\000\017\000\000\000\336?\000\302s\004\022\000\000\000\000\000\000\016\000\000\0362\000\302s\005\023\000\000\000\000\000\000\016\000\000\0362\000\205y\000\004\000\000\000\000\004\031\020\f\000\3363\000\002x\004\000\000\000\000\000\000\017\000\000\000\336?\000\002x\005\000\000\000\000\000\000\017\000\000\000\336?\000\002r\004\000\004\000\000\000\000\017\000\000\000\336?\000\002r\005\000\005\000\000\000\000\017\000\000\000\336?\000\002r\004\000\004\000\000\000\000\017\000\000\000\336?\000\002r\005\000\005\000\000\000\000\017\000\000\000\336?\000\002r\000\000\004\000\000\000\000\017\000\000\000\336?\000\002r\005\000\005\000\000\000\000\017\000\000\000\336?\000\002r\004\000\000\000\000\000\000\017\000\000\000\336?\000\002r\005\000\005\000\000\000\000\017\000\000\000\336?\000\020x\006\020\030\000\000\000\377\340\361\007\000\336?\000\020r\002\002\377\000\000\000\377\344\177\000\000\336?\000\002r\004\000\004\000\000\000\000\017\000\000\000\336?\000\002r\005\000\005\000\000\000\000\017\000\000\000\336?\000\002r\006\000\006\000\000\000\000\017\000\000\000\336?\000\002r\007\000\002\000\000\000\000\017\000\000\000\336?\000\002x\024\000\000\000\000\000\000\017\000\000\000\336?\000\002x\025\000\000\000\000\000\000\017\000\000\000\336?\000Cy\000\000\000\000\000\000\000\000\300\003\000\336?\000My\000\000\000\000\000\000\000\000\200\003\000\336?\000Gy\000\000\360\377\377\377\377\377\203\003\000\300\017\000\030y\000\000\000\000\000\000\000\000\000\000\000\300\017\000\030y\000\000\000\000\000\000\000\000\000\000\000\300\017\000\030y\000\000\000\000\000\000\000\000\000\000\000\300\017\000\030y\000\000\000\000\000\000\000\000\000\000\000\300\017\000\030y\000\000\000\000\000\000\000\000\000\000\000\300\017\000\030y\000\000\000\000\000\000\000\000\000\000\000\300\017\000\030y\000\000\000\000\000\000\000\000\000\000\000\300\017\000\030y\000\000\000\000\000\000\000\000\000\000\000\300\017\000\030y\000\000\000\000\000\000\000\000\000\000\000\300\017\000\002z\001\000\000\n\000\000\000\017\000\000\000\336?\000\020x\001\001\370\377\377\377\377\340\377\007\000\336?\000\031y\000\000\000\000\000\000\0007\000\000\000\0362\000\fr\000\001\000\000\000\000p`\360\003\000\336?\000G\t\000\000\020\000\000\000\000\000\200\003\000\336?\000\\y\000\000\004\000\000\000\000\0000\000\000\336?\000\002z\004\000\000F\000\000\000\017\000\000\000\336?\000\002z\005\000\000G\000\000\000\017\000\000\000\336?\000\020r\000\001\377\000\000\000\377\340\377\007\000\336?\000\002r\000\000\000\000\000\000\000\017\000\000\000\336?\000\002r\002\000\000\000\000\000\000\017\000\000\000\336?\000\002r\003\000\377\000\000\000\000\017\000\000\000\336?\000\002r\000\000\002\000\000\000\000\017\000\000\000\336?\000\002r\002\000\003\000\000\000\000\017\000\000\000\336?\000\002r\000\000\000\000\000\000\000\017\000\000\000\336?\000\002r\002\000\002\000\000\000\000\017\000\000\000\336?\000\002z\006\000\000\b\000\000\000\017\000\000\000\336?\000\002z\007\000\000\t\000\000\000\017\000\000\000\336?\000\020r\006\000\006\000\000\000\377\340\361\007\000\336?\000\020r\007\002\007\000\000\000\377\344\177\000\000\336?\000\031y\000\000\000\000\000\000\000!\000\000\000\0362\000\002r\000\000\000\000\000\000\000\017\000\000\000\336?\000\002r\002\000\006\000\000\000\000\017\000\000\000\336?\000\002r\003\000\007\000\000\000\000\017\000\000\000\336?\000\002r\002\000\002\000\000\000\000\017\000\000\000\336?\000\002r\003\000\003\000\000\000\000\017\000\000\000\336?\000\302s\004\004\000\000\000\000\000\000\016\000\000\0362\000\302s\005\005\000\000\000\000\000\000\016\000\000\0362\000\205y\000\002\000\000\000\000\004\031\020\f\000\3363\000\002x\002\000\000\000\000\000\000\017\000\000\000\336?\000\002x\003\000\000\000\000\000\000\017\000\000\000\336?\000\002r\002\000\002\000\000\000\000\017\000\000\000\336?\000\002r\003\000\003\000\000\000\000\017\000\000\000\336?\000\002r\002\000\002\000\000\000\000\017\000\000\000\336?\000\002r\003\000\003\000\000\000\000\017\000\000\000\336?\000\002r\004\000\002\000\000\000\000\017\000\000\000\336?\000\002r\005\000\003\000\000\000\000\017\000\000\000\336?\000\002r\004\000\004\000\000\000\000\017\000\000\000\336?\000\002r\005\000\005\000\000\000\000\017\000\000\000\336?\000\020r\006\006\377\000\000\000\377\340\361\007\000\336?\000\020r\007\007\377\000\000\000\377\344\177\000\000\336?\000\002r\004\000\004\000\000\000\000\017\000\000\000\336?\000\002r\005\000\005\000\000\000\000\017\000\000\000\336?\000\002r\006\000\006\000\000\000\000\017\000\000\000\336?\000\002r\007\000\007\000\000\000\000\017\000\000\000\336?\000\002x\024\000\000\000\000\000\000\017\000\000\000\336?\000\002x\025\000\000\000\000\000\000\017\000\000\000\336?\000Cy\000\000\000\000\000\000\000\000\300\003\000\336?\000My\000\000\000\000\000\000\000\000\200\003\000\336?\000Gy\000\000\360\377\377\377\377\377\203\003\000\300\017\000\030y\000\000\000\000\000\000\000\000\000\000\000\300\017\000\030y\000\000\000\000\000\000\000\000\000\000\000\300\017\000\030y\000\000\000\000\000\000\000\000\000\000\000\300\017\000\030y\000\000\000\000\000\000\000\000\000\000\000\300\017\000\030y\000\000\000\000\000\000\000\000\000\000\000\300\017\000\030y\000\000\000\000\000\000\000\000\000\000\000\300\017\000\030y\000\000\000\000\000\000\000\000\000\000\000\300\017\000\030y\000\000\000\000\000\000\000\000\000\000\000\300\017\000\030y\000\000\000\000\000\000\000\000\000\000\000\300\017\000\030y\000\000\000\000\000\000\000\000\000\000\000\300\017\000\030y\000\000\000\000\000\000\000\000\000\000\000\300\017\000\030y\000\000\000\000\000\000\000\000\000\000\000\300\017\000\030y\000\000\000\000\000\000\000\000\000\000\000\300\017\000\030y\000\000\000\000\000\000\000\000\000\000\000\300\017\000TID: %d concluded\000Hello from GPU thread %d\n\000Stride: Hello from GPU thread %d\n\000\000\000\000\000\000\000\000\000\000\000\000\000\000\000\000\000\000\000\000\000\000\000\000\000\000\000\000\000\000\000\000\000\000\000\000\000\000\000\000\000\000\000\000\000\000\000\000\000\000\000\000\000\000\000\000\000\000\000\000\000\000\000\000\000\000\000\001\000\000\000\003\000\000\000\000\000\000\000\000\000\000\000\000\000\000\000\000\000\000\000@\000\000\000\000\000\000\000\322\001\000\000\000\000\000\000\000\000\000\000\000\000\000\000\001\000\000\000\000\000\000\000\000\000\000\000\000\000\000\000\013\000\000\000\003\000\000\000\000\000\000\000\000\000\000\000\000\000\000\000\000\000\000\000\022\002\000\000\000\000\000\000<\002\000\000\000\000\000\000\000\000\000\000\000\000\000\000\001\000\000\000\000\000\000\000\000\000\000\000\000\000\000\000\023\000\000\000\002\000\000\000\000\000\000\000\000\000\000\000\000\000\000\000\000\000\000\000P\004\000\000\000\000\000\000\260\001\000\000\000\000\000\000\002\000\000\000\017\000\000\000\b\000\000\000\000\000\000\000\030\000\000\000\000\000\000\000\223\001\000\000\001\000\000\000\000\000\000\000\000\000\000\000\000\000\000\000\000\000\000\000\000\006\000\000\000\000\000\000\340\000\000\000\000\000\000\000\000\000\000\000\000\000\000\000\001\000\000\000\000\000\000\000\000\000\000\000\000\000\000\000)\000\000\000\000\000\000p\000\000\000\000\000\000\000\000\000\000\000\000\000\000\000\000\340\006\000\000\000\000\000\000`\000\000\000\000\000\000\000\003\000\000\000\000\000\000\000\004\000\000\000\000\000\000\000\000\000\000\000\000\000\000\000M\000\000\000\000\000\000p\000\000\000\000\000\000\000\000\000\000\000\000\000\000\000\000@\007\000\000\000\000\000\000T\000\000\000\000\000\000\000\003\000\000\000\020\000\000\000\004\000\000\000\000\000\000\000\000\000\000\000\000\000\000\000\033\001\000\000\000\000\000p\000\000\000\000\000\000\000\000\000\000\000\000\000\000\000\000\224\007\000\000\000\000\000\000\034\000\000\000\000\000\000\000\003\000\000\000\021\000\000\000\004\000\000\000\000\000\000\000\000\000\000\000\000\000\000\000\303\001\000\000\013\000\000p\000\000\000\000\000\000\000\000\000\000\000\000\000\000\000\000\260\007\000\000\000\000\000\000\340\000\000\000\000\000\000\000\000\000\000\000\000\000\000\000\b\000\000\000\000\000\000\000\b\000\000\000\000\000\000\000\246\000\000\000\t\000\000\000\000\000\000\000\000\000\000\000\000\000\000\000\000\000\000\000\220\b\000\000\000\000\000\000`\000\000\000\000\000\000\000\003\000\000\000\020\000\000\000\b\000\000\000\000\000\000\000\020\000\000\000\000\000\000\000\305\000\000\000\004\000\000\000\000\000\000\000\000\000\000\000\000\000\000\000\000\000\000\000\360\b\000\000\000\000\000\000`\000\000\000\000\000\000\000\003\000\000\000\020\000\000\000\b\000\000\000\000\000\000\000\030\000\000\000\000\000\000\000I\001\000\000\t\000\000\000\000\000\000\000\000\000\000\000\000\000\000\000\000\000\000\000P\t\000\000\000\000\000\0000\000\000\000\000\000\000\000\003\000\000\000\021\000\000\000\b\000\000\000\000\000\000\000\020\000\000\000\000\000\000\000`\001\000\000\004\000\000\000\000\000\000\000\000\000\000\000\000\000\000\000\000\000\000\000\200\t\000\000\000\000\000\0000\000\000\000\000\000\000\000\003\000\000\000\021\000\000\000\b\000\000\000\000\000\000\000\030\000\000\000\000\000\000\000\240\001\000\000\t\000\000\000\000\000\000\000\000\000\000\000\000\000\000\000\000\000\000\000\260\t\000\000\000\000\000\000 \000\000\000\000\000\000\000\003\000\000\000\004\000\000\000\b\000\000\000\000\000\000\000\020\000\000\000\000\000\000\000\345\000\000\000\001\000\000\000\002\000\000\000\000\000\000\000\000\000\000\000\000\000\000\000\320\t\000\000\000\000\000\000l\001\000\000\000\000\000\000\000\000\000\000\020\000\000\000\004\000\000\000\000\000\000\000\000\000\000\000\000\000\000\000x\001\000\000\001\000\000\000\002\000\000\000\000\000\000\000\000\000\000\000\000\000\000\000<\013\000\000\000\000\000\000`\001\000\000\000\000\000\000\000\000\000\000\021\000\000\000\004\000\000\000\000\000\000\000\000\000\000\000\000\000\000\0002\000\000\000\001\000\000\000\006\000\000\000\000\000\000\000\000\000\000\000\000\000\000\000\000\r\000\000\000\000\000\000\000\r\000\000\000\000\000\000\003\000\000\000\017\000\000\030\200\000\000\000\000\000\000\000\000\000\000\000\000\000\000\000\b\001\000\000\001\000\000\000\006\000\000\000\000\000\000\000\000\000\000\000\000\000\000\000\000\032\000\000\000\000\000\000\000\004\000\000\000\000\000\000\003\000\000\000\021\000\000\030\200\000\000\000\000\000\000\000\000\000\000\000\000\000\000\000\213\000\000\000\001\000\000\000\003\000\000\000\000\000\000\000\000\000\000\000\000\000\000\000\000\036\000\000\000\000\000\000N\000\000\000\000\000\000\000\000\000\000\000\000\000\000\000\001\000\000\000\000\000\000\000\000\000\000\000\000\000\000\000\233\000\000\000\b\000\000\000\003\000\000\000\000\000\000\000\000\000\000\000\000\000\000\000N\036\000\000\000\000\000\000\003\000\000\000\000\000\000\000\000\000\000\000\000\000\000\000\001\000\000\000\000\000\000\000\000\000\000\000\000\000\000\000\006\000\000\000\005\000\000\000P#\000\000\000\000\000\000\000\000\000\000\000\000\000\000\000\000\000\000\000\000\000\000\340\000\000\000\000\000\000\000\340\000\000\000\000\000\000\000\b\000\000\000\000\000\000\000\001\000\000\000\005\000\000\000\320\t\000\000\000\000\000\000\000\000\000\000\000\000\000\000\000\000\000\000\000\000\000\0000\024\000\000\000\000\000\0000\024\000\000\000\000\000\000\b\000\000\000\000\000\000\000\001\000\000\000\006\000\000\000\000\036\000\000\000\000\000\000\000\000\000\000\000\000\000\000\000\000\000\000\000\000\000\000N\000\000\000\000\000\000\000Q\000\000\000\000\000\000\000\b\000\000\000\000\000\000\000\001\000\000\000\005\000\000\000P#\000\000\000\000\000\000\000\000\000\000\000\000\000\000\000\000\000\000\000\000\000\000\340\000\000\000\000\000\000\000\340\000\000\000\000\000\000\000\b\000\000\000\000\000\000"
	.size	.L__unnamed_3, 9344

	.type	__cuda_fatbin_wrapper,@object   # @__cuda_fatbin_wrapper
	.section	.nvFatBinSegment,"aw",@progbits
	.p2align	3, 0x0
__cuda_fatbin_wrapper:
	.long	1180844977                      # 0x466243b1
	.long	1                               # 0x1
	.quad	.L__unnamed_3
	.quad	0
	.size	__cuda_fatbin_wrapper, 24

	.type	__cuda_gpubin_handle,@object    # @__cuda_gpubin_handle
	.local	__cuda_gpubin_handle
	.comm	__cuda_gpubin_handle,8,8
	.section	.init_array,"aw",@init_array
	.p2align	3, 0x0
	.quad	_GLOBAL__sub_I_test_kernel.cu
	.quad	__cuda_module_ctor
	.ident	"Ubuntu clang version 20.1.8 (++20250708082409+6fb913d3e2ec-1~exp1~20250708202428.132)"
	.section	".note.GNU-stack","",@progbits
	.addrsig
	.addrsig_sym __cxx_global_var_init
	.addrsig_sym __cxa_atexit
	.addrsig_sym _Z23__device_stub__myKernelv
	.addrsig_sym __cudaPopCallConfiguration
	.addrsig_sym cudaLaunchKernel
	.addrsig_sym _Z28__device_stub__stride_accessPii
	.addrsig_sym _ZL17cudaMallocManagedIiE9cudaErrorPPT_mj
	.addrsig_sym __cudaPushCallConfiguration
	.addrsig_sym cudaDeviceSynchronize
	.addrsig_sym printf
	.addrsig_sym cudaGetErrorString
	.addrsig_sym cudaMallocManaged
	.addrsig_sym _GLOBAL__sub_I_test_kernel.cu
	.addrsig_sym __cuda_register_globals
	.addrsig_sym __cudaRegisterFunction
	.addrsig_sym __cudaRegisterFatBinary
	.addrsig_sym __cuda_module_ctor
	.addrsig_sym __cudaRegisterFatBinaryEnd
	.addrsig_sym __cudaUnregisterFatBinary
	.addrsig_sym __cuda_module_dtor
	.addrsig_sym atexit
	.addrsig_sym _ZStL8__ioinit
	.addrsig_sym __dso_handle
	.addrsig_sym .L__unnamed_3
	.addrsig_sym __cuda_fatbin_wrapper
	.addrsig_sym __cuda_gpubin_handle
